; Function Attrs: null_pointer_is_valid sspstrong uwtable
define internal i32 @mdssvc_dissect_open_response(ptr noundef %0, i32 noundef %1, ptr noundef %2, ptr noundef %3, ptr noundef initializes((72, 80)) %4, ptr noundef %5) #0 {
  %7 = alloca ptr, align 8
  %8 = getelementptr inbounds nuw i8, ptr %4, i64 72
  store ptr @.str.77, ptr %8, align 8
  %9 = load i32, ptr @hf_mdssvc_mdssvc_open_device_id, align 4
  %10 = tail call i32 @dissect_ndr_toplevel_pointer(ptr noundef %0, i32 noundef %1, ptr noundef %2, ptr noundef %3, ptr noundef %4, ptr noundef %5, ptr noundef nonnull @mdssvc_dissect_element_open_device_id_, i32 noundef 1, ptr noundef nonnull @.str.82, i32 noundef %9)
  %11 = tail call i32 @dissect_deferred_pointers(ptr noundef %2, ptr noundef %0, i32 noundef %10, ptr noundef %4, ptr noundef %5)
  %12 = load i32, ptr @hf_mdssvc_mdssvc_open_unkn2, align 4
  %13 = tail call i32 @dissect_ndr_toplevel_pointer(ptr noundef %0, i32 noundef %11, ptr noundef %2, ptr noundef %3, ptr noundef %4, ptr noundef %5, ptr noundef nonnull @mdssvc_dissect_element_open_unkn2_, i32 noundef 1, ptr noundef nonnull @.str.83, i32 noundef %12)
  %14 = tail call i32 @dissect_deferred_pointers(ptr noundef %2, ptr noundef %0, i32 noundef %13, ptr noundef %4, ptr noundef %5)
  %15 = load i32, ptr @hf_mdssvc_mdssvc_open_unkn3, align 4
  %16 = tail call i32 @dissect_ndr_toplevel_pointer(ptr noundef %0, i32 noundef %14, ptr noundef %2, ptr noundef %3, ptr noundef %4, ptr noundef %5, ptr noundef nonnull @mdssvc_dissect_element_open_unkn3_, i32 noundef 1, ptr noundef nonnull @.str.84, i32 noundef %15)
  %17 = tail call i32 @dissect_deferred_pointers(ptr noundef %2, ptr noundef %0, i32 noundef %16, ptr noundef %4, ptr noundef %5)
  call void @llvm.lifetime.start.p0(i64 8, ptr nonnull %7) #3
  %18 = load i32, ptr @hf_mdssvc_mdssvc_open_share_path, align 4
  %19 = call i32 @dissect_ndr_cvstring(ptr noundef %0, i32 noundef %17, ptr noundef %2, ptr noundef %3, ptr noundef %4, ptr noundef %5, i32 noundef 1, i32 noundef %18, i1 noundef zeroext false, ptr noundef nonnull %7)
  %20 = load ptr, ptr %7, align 8
  call void (ptr, ptr, ...) @proto_item_append_text(ptr noundef %3, ptr noundef nonnull @.str.85, ptr noundef %20)
  call void @llvm.lifetime.end.p0(i64 8, ptr nonnull %7) #3
  %21 = call i32 @dissect_deferred_pointers(ptr noundef %2, ptr noundef %0, i32 noundef %19, ptr noundef %4, ptr noundef %5)
  %22 = load i32, ptr @hf_mdssvc_mdssvc_open_handle, align 4
  %23 = call i32 @dissect_ndr_toplevel_pointer(ptr noundef %0, i32 noundef %21, ptr noundef %2, ptr noundef %3, ptr noundef %4, ptr noundef %5, ptr noundef nonnull @mdssvc_dissect_element_open_handle_, i32 noundef 1, ptr noundef nonnull @.str.86, i32 noundef %22)
  %24 = call i32 @dissect_deferred_pointers(ptr noundef %2, ptr noundef %0, i32 noundef %23, ptr noundef %4, ptr noundef %5)
  ret i32 %24
}